
task8.elf:     file format elf32-littleriscv


Disassembly of section .text:

000100b4 <sum_negative>:
   100b4:	fd010113          	addi	sp,sp,-48
   100b8:	02112623          	sw	ra,44(sp)
   100bc:	02812423          	sw	s0,40(sp)
   100c0:	03010413          	addi	s0,sp,48
   100c4:	fca42e23          	sw	a0,-36(s0)
   100c8:	fe042623          	sw	zero,-20(s0)
   100cc:	fe042423          	sw	zero,-24(s0)
   100d0:	0a00006f          	j	10170 <sum_negative+0xbc>
   100d4:	fe042223          	sw	zero,-28(s0)
   100d8:	0800006f          	j	10158 <sum_negative+0xa4>
   100dc:	fe842703          	lw	a4,-24(s0)
   100e0:	00070793          	mv	a5,a4
   100e4:	00179793          	slli	a5,a5,0x1
   100e8:	00e787b3          	add	a5,a5,a4
   100ec:	00379793          	slli	a5,a5,0x3
   100f0:	00078713          	mv	a4,a5
   100f4:	fdc42783          	lw	a5,-36(s0)
   100f8:	00e78733          	add	a4,a5,a4
   100fc:	fe442783          	lw	a5,-28(s0)
   10100:	00279793          	slli	a5,a5,0x2
   10104:	00f707b3          	add	a5,a4,a5
   10108:	0007a783          	lw	a5,0(a5)
   1010c:	0407d063          	bgez	a5,1014c <sum_negative+0x98>
   10110:	fe842703          	lw	a4,-24(s0)
   10114:	00070793          	mv	a5,a4
   10118:	00179793          	slli	a5,a5,0x1
   1011c:	00e787b3          	add	a5,a5,a4
   10120:	00379793          	slli	a5,a5,0x3
   10124:	00078713          	mv	a4,a5
   10128:	fdc42783          	lw	a5,-36(s0)
   1012c:	00e78733          	add	a4,a5,a4
   10130:	fe442783          	lw	a5,-28(s0)
   10134:	00279793          	slli	a5,a5,0x2
   10138:	00f707b3          	add	a5,a4,a5
   1013c:	0007a783          	lw	a5,0(a5)
   10140:	fec42703          	lw	a4,-20(s0)
   10144:	00f707b3          	add	a5,a4,a5
   10148:	fef42623          	sw	a5,-20(s0)
   1014c:	fe442783          	lw	a5,-28(s0)
   10150:	00178793          	addi	a5,a5,1
   10154:	fef42223          	sw	a5,-28(s0)
   10158:	fe442703          	lw	a4,-28(s0)
   1015c:	00500793          	li	a5,5
   10160:	f6e7dee3          	bge	a5,a4,100dc <sum_negative+0x28>
   10164:	fe842783          	lw	a5,-24(s0)
   10168:	00178793          	addi	a5,a5,1
   1016c:	fef42423          	sw	a5,-24(s0)
   10170:	fe842703          	lw	a4,-24(s0)
   10174:	00500793          	li	a5,5
   10178:	f4e7dee3          	bge	a5,a4,100d4 <sum_negative+0x20>
   1017c:	fec42783          	lw	a5,-20(s0)
   10180:	00078513          	mv	a0,a5
   10184:	02c12083          	lw	ra,44(sp)
   10188:	02812403          	lw	s0,40(sp)
   1018c:	03010113          	addi	sp,sp,48
   10190:	00008067          	ret

00010194 <main>:
   10194:	ff010113          	addi	sp,sp,-16
   10198:	00112623          	sw	ra,12(sp)
   1019c:	00812423          	sw	s0,8(sp)
   101a0:	01010413          	addi	s0,sp,16
   101a4:	000117b7          	lui	a5,0x11
   101a8:	1bc78513          	addi	a0,a5,444 # 111bc <matrix>
   101ac:	f09ff0ef          	jal	100b4 <sum_negative>
   101b0:	00050713          	mv	a4,a0
   101b4:	88e1a823          	sw	a4,-1904(gp) # 1124c <g_result>
   101b8:	0000006f          	j	101b8 <main+0x24>
